ARM GAS  /tmp/ccfpFN4r.s 			page 1


   1              		.cpu cortex-m4
   2              		.eabi_attribute 27, 1
   3              		.eabi_attribute 28, 1
   4              		.eabi_attribute 20, 1
   5              		.eabi_attribute 21, 1
   6              		.eabi_attribute 23, 3
   7              		.eabi_attribute 24, 1
   8              		.eabi_attribute 25, 1
   9              		.eabi_attribute 26, 1
  10              		.eabi_attribute 30, 1
  11              		.eabi_attribute 34, 1
  12              		.eabi_attribute 18, 4
  13              		.file	"usart.c"
  14              		.text
  15              	.Ltext0:
  16              		.cfi_sections	.debug_frame
  17              		.section	.text.MX_USART1_UART_Init,"ax",%progbits
  18              		.align	1
  19              		.global	MX_USART1_UART_Init
  20              		.arch armv7e-m
  21              		.syntax unified
  22              		.thumb
  23              		.thumb_func
  24              		.fpu fpv4-sp-d16
  26              	MX_USART1_UART_Init:
  27              	.LFB130:
  28              		.file 1 "Core/Src/usart.c"
   1:Core/Src/usart.c **** /**
   2:Core/Src/usart.c ****   ******************************************************************************
   3:Core/Src/usart.c ****   * @file    usart.c
   4:Core/Src/usart.c ****   * @brief   This file provides code for the configuration
   5:Core/Src/usart.c ****   *          of the USART instances.
   6:Core/Src/usart.c ****   ******************************************************************************
   7:Core/Src/usart.c ****   * @attention
   8:Core/Src/usart.c ****   *
   9:Core/Src/usart.c ****   * <h2><center>&copy; Copyright (c) 2021 STMicroelectronics.
  10:Core/Src/usart.c ****   * All rights reserved.</center></h2>
  11:Core/Src/usart.c ****   *
  12:Core/Src/usart.c ****   * This software component is licensed by ST under BSD 3-Clause license,
  13:Core/Src/usart.c ****   * the "License"; You may not use this file except in compliance with the
  14:Core/Src/usart.c ****   * License. You may obtain a copy of the License at:
  15:Core/Src/usart.c ****   *                        opensource.org/licenses/BSD-3-Clause
  16:Core/Src/usart.c ****   *
  17:Core/Src/usart.c ****   ******************************************************************************
  18:Core/Src/usart.c ****   */
  19:Core/Src/usart.c **** 
  20:Core/Src/usart.c **** /* Includes ------------------------------------------------------------------*/
  21:Core/Src/usart.c **** #include "usart.h"
  22:Core/Src/usart.c **** 
  23:Core/Src/usart.c **** /* USER CODE BEGIN 0 */
  24:Core/Src/usart.c **** 
  25:Core/Src/usart.c **** /* USER CODE END 0 */
  26:Core/Src/usart.c **** 
  27:Core/Src/usart.c **** UART_HandleTypeDef huart1;
  28:Core/Src/usart.c **** DMA_HandleTypeDef hdma_usart1_rx;
  29:Core/Src/usart.c **** DMA_HandleTypeDef hdma_usart1_tx;
  30:Core/Src/usart.c **** 
ARM GAS  /tmp/ccfpFN4r.s 			page 2


  31:Core/Src/usart.c **** /* USART1 init function */
  32:Core/Src/usart.c **** 
  33:Core/Src/usart.c **** void MX_USART1_UART_Init(void)
  34:Core/Src/usart.c **** {
  29              		.loc 1 34 1 view -0
  30              		.cfi_startproc
  31              		@ args = 0, pretend = 0, frame = 0
  32              		@ frame_needed = 0, uses_anonymous_args = 0
  33 0000 08B5     		push	{r3, lr}
  34              	.LCFI0:
  35              		.cfi_def_cfa_offset 8
  36              		.cfi_offset 3, -8
  37              		.cfi_offset 14, -4
  35:Core/Src/usart.c **** 
  36:Core/Src/usart.c ****   /* USER CODE BEGIN USART1_Init 0 */
  37:Core/Src/usart.c **** 
  38:Core/Src/usart.c ****   /* USER CODE END USART1_Init 0 */
  39:Core/Src/usart.c **** 
  40:Core/Src/usart.c ****   /* USER CODE BEGIN USART1_Init 1 */
  41:Core/Src/usart.c **** 
  42:Core/Src/usart.c ****   /* USER CODE END USART1_Init 1 */
  43:Core/Src/usart.c ****   huart1.Instance = USART1;
  38              		.loc 1 43 3 view .LVU1
  39              		.loc 1 43 19 is_stmt 0 view .LVU2
  40 0002 0A48     		ldr	r0, .L5
  41 0004 0A4B     		ldr	r3, .L5+4
  42 0006 0360     		str	r3, [r0]
  44:Core/Src/usart.c ****   huart1.Init.BaudRate = 115200;
  43              		.loc 1 44 3 is_stmt 1 view .LVU3
  44              		.loc 1 44 24 is_stmt 0 view .LVU4
  45 0008 4FF4E133 		mov	r3, #115200
  46 000c 4360     		str	r3, [r0, #4]
  45:Core/Src/usart.c ****   huart1.Init.WordLength = UART_WORDLENGTH_8B;
  47              		.loc 1 45 3 is_stmt 1 view .LVU5
  48              		.loc 1 45 26 is_stmt 0 view .LVU6
  49 000e 0023     		movs	r3, #0
  50 0010 8360     		str	r3, [r0, #8]
  46:Core/Src/usart.c ****   huart1.Init.StopBits = UART_STOPBITS_1;
  51              		.loc 1 46 3 is_stmt 1 view .LVU7
  52              		.loc 1 46 24 is_stmt 0 view .LVU8
  53 0012 C360     		str	r3, [r0, #12]
  47:Core/Src/usart.c ****   huart1.Init.Parity = UART_PARITY_NONE;
  54              		.loc 1 47 3 is_stmt 1 view .LVU9
  55              		.loc 1 47 22 is_stmt 0 view .LVU10
  56 0014 0361     		str	r3, [r0, #16]
  48:Core/Src/usart.c ****   huart1.Init.Mode = UART_MODE_TX_RX;
  57              		.loc 1 48 3 is_stmt 1 view .LVU11
  58              		.loc 1 48 20 is_stmt 0 view .LVU12
  59 0016 0C22     		movs	r2, #12
  60 0018 4261     		str	r2, [r0, #20]
  49:Core/Src/usart.c ****   huart1.Init.HwFlowCtl = UART_HWCONTROL_NONE;
  61              		.loc 1 49 3 is_stmt 1 view .LVU13
  62              		.loc 1 49 25 is_stmt 0 view .LVU14
  63 001a 8361     		str	r3, [r0, #24]
  50:Core/Src/usart.c ****   huart1.Init.OverSampling = UART_OVERSAMPLING_16;
  64              		.loc 1 50 3 is_stmt 1 view .LVU15
  65              		.loc 1 50 28 is_stmt 0 view .LVU16
ARM GAS  /tmp/ccfpFN4r.s 			page 3


  66 001c C361     		str	r3, [r0, #28]
  51:Core/Src/usart.c ****   if (HAL_UART_Init(&huart1) != HAL_OK)
  67              		.loc 1 51 3 is_stmt 1 view .LVU17
  68              		.loc 1 51 7 is_stmt 0 view .LVU18
  69 001e FFF7FEFF 		bl	HAL_UART_Init
  70              	.LVL0:
  71              		.loc 1 51 6 view .LVU19
  72 0022 00B9     		cbnz	r0, .L4
  73              	.L1:
  52:Core/Src/usart.c ****   {
  53:Core/Src/usart.c ****     Error_Handler();
  54:Core/Src/usart.c ****   }
  55:Core/Src/usart.c ****   /* USER CODE BEGIN USART1_Init 2 */
  56:Core/Src/usart.c **** 
  57:Core/Src/usart.c ****   /* USER CODE END USART1_Init 2 */
  58:Core/Src/usart.c **** 
  59:Core/Src/usart.c **** }
  74              		.loc 1 59 1 view .LVU20
  75 0024 08BD     		pop	{r3, pc}
  76              	.L4:
  53:Core/Src/usart.c ****   }
  77              		.loc 1 53 5 is_stmt 1 view .LVU21
  78 0026 FFF7FEFF 		bl	Error_Handler
  79              	.LVL1:
  80              		.loc 1 59 1 is_stmt 0 view .LVU22
  81 002a FBE7     		b	.L1
  82              	.L6:
  83              		.align	2
  84              	.L5:
  85 002c 00000000 		.word	huart1
  86 0030 00100140 		.word	1073811456
  87              		.cfi_endproc
  88              	.LFE130:
  90              		.section	.text.HAL_UART_MspInit,"ax",%progbits
  91              		.align	1
  92              		.global	HAL_UART_MspInit
  93              		.syntax unified
  94              		.thumb
  95              		.thumb_func
  96              		.fpu fpv4-sp-d16
  98              	HAL_UART_MspInit:
  99              	.LVL2:
 100              	.LFB131:
  60:Core/Src/usart.c **** 
  61:Core/Src/usart.c **** void HAL_UART_MspInit(UART_HandleTypeDef* uartHandle)
  62:Core/Src/usart.c **** {
 101              		.loc 1 62 1 is_stmt 1 view -0
 102              		.cfi_startproc
 103              		@ args = 0, pretend = 0, frame = 32
 104              		@ frame_needed = 0, uses_anonymous_args = 0
 105              		.loc 1 62 1 is_stmt 0 view .LVU24
 106 0000 30B5     		push	{r4, r5, lr}
 107              	.LCFI1:
 108              		.cfi_def_cfa_offset 12
 109              		.cfi_offset 4, -12
 110              		.cfi_offset 5, -8
 111              		.cfi_offset 14, -4
ARM GAS  /tmp/ccfpFN4r.s 			page 4


 112 0002 89B0     		sub	sp, sp, #36
 113              	.LCFI2:
 114              		.cfi_def_cfa_offset 48
  63:Core/Src/usart.c **** 
  64:Core/Src/usart.c ****   GPIO_InitTypeDef GPIO_InitStruct = {0};
 115              		.loc 1 64 3 is_stmt 1 view .LVU25
 116              		.loc 1 64 20 is_stmt 0 view .LVU26
 117 0004 0023     		movs	r3, #0
 118 0006 0393     		str	r3, [sp, #12]
 119 0008 0493     		str	r3, [sp, #16]
 120 000a 0593     		str	r3, [sp, #20]
 121 000c 0693     		str	r3, [sp, #24]
 122 000e 0793     		str	r3, [sp, #28]
  65:Core/Src/usart.c ****   if(uartHandle->Instance==USART1)
 123              		.loc 1 65 3 is_stmt 1 view .LVU27
 124              		.loc 1 65 16 is_stmt 0 view .LVU28
 125 0010 0268     		ldr	r2, [r0]
 126              		.loc 1 65 5 view .LVU29
 127 0012 03F18043 		add	r3, r3, #1073741824
 128 0016 03F58833 		add	r3, r3, #69632
 129 001a 9A42     		cmp	r2, r3
 130 001c 01D0     		beq	.L12
 131              	.LVL3:
 132              	.L7:
  66:Core/Src/usart.c ****   {
  67:Core/Src/usart.c ****   /* USER CODE BEGIN USART1_MspInit 0 */
  68:Core/Src/usart.c **** 
  69:Core/Src/usart.c ****   /* USER CODE END USART1_MspInit 0 */
  70:Core/Src/usart.c ****     /* USART1 clock enable */
  71:Core/Src/usart.c ****     __HAL_RCC_USART1_CLK_ENABLE();
  72:Core/Src/usart.c **** 
  73:Core/Src/usart.c ****     __HAL_RCC_GPIOA_CLK_ENABLE();
  74:Core/Src/usart.c ****     /**USART1 GPIO Configuration
  75:Core/Src/usart.c ****     PA9     ------> USART1_TX
  76:Core/Src/usart.c ****     PA10     ------> USART1_RX
  77:Core/Src/usart.c ****     */
  78:Core/Src/usart.c ****     GPIO_InitStruct.Pin = GPIO_PIN_9|GPIO_PIN_10;
  79:Core/Src/usart.c ****     GPIO_InitStruct.Mode = GPIO_MODE_AF_PP;
  80:Core/Src/usart.c ****     GPIO_InitStruct.Pull = GPIO_NOPULL;
  81:Core/Src/usart.c ****     GPIO_InitStruct.Speed = GPIO_SPEED_FREQ_VERY_HIGH;
  82:Core/Src/usart.c ****     GPIO_InitStruct.Alternate = GPIO_AF7_USART1;
  83:Core/Src/usart.c ****     HAL_GPIO_Init(GPIOA, &GPIO_InitStruct);
  84:Core/Src/usart.c **** 
  85:Core/Src/usart.c ****     /* USART1 DMA Init */
  86:Core/Src/usart.c ****     /* USART1_RX Init */
  87:Core/Src/usart.c ****     hdma_usart1_rx.Instance = DMA2_Stream2;
  88:Core/Src/usart.c ****     hdma_usart1_rx.Init.Channel = DMA_CHANNEL_4;
  89:Core/Src/usart.c ****     hdma_usart1_rx.Init.Direction = DMA_PERIPH_TO_MEMORY;
  90:Core/Src/usart.c ****     hdma_usart1_rx.Init.PeriphInc = DMA_PINC_DISABLE;
  91:Core/Src/usart.c ****     hdma_usart1_rx.Init.MemInc = DMA_MINC_ENABLE;
  92:Core/Src/usart.c ****     hdma_usart1_rx.Init.PeriphDataAlignment = DMA_PDATAALIGN_BYTE;
  93:Core/Src/usart.c ****     hdma_usart1_rx.Init.MemDataAlignment = DMA_MDATAALIGN_BYTE;
  94:Core/Src/usart.c ****     hdma_usart1_rx.Init.Mode = DMA_NORMAL;
  95:Core/Src/usart.c ****     hdma_usart1_rx.Init.Priority = DMA_PRIORITY_LOW;
  96:Core/Src/usart.c ****     hdma_usart1_rx.Init.FIFOMode = DMA_FIFOMODE_DISABLE;
  97:Core/Src/usart.c ****     if (HAL_DMA_Init(&hdma_usart1_rx) != HAL_OK)
  98:Core/Src/usart.c ****     {
ARM GAS  /tmp/ccfpFN4r.s 			page 5


  99:Core/Src/usart.c ****       Error_Handler();
 100:Core/Src/usart.c ****     }
 101:Core/Src/usart.c **** 
 102:Core/Src/usart.c ****     __HAL_LINKDMA(uartHandle,hdmarx,hdma_usart1_rx);
 103:Core/Src/usart.c **** 
 104:Core/Src/usart.c ****     /* USART1_TX Init */
 105:Core/Src/usart.c ****     hdma_usart1_tx.Instance = DMA2_Stream7;
 106:Core/Src/usart.c ****     hdma_usart1_tx.Init.Channel = DMA_CHANNEL_4;
 107:Core/Src/usart.c ****     hdma_usart1_tx.Init.Direction = DMA_MEMORY_TO_PERIPH;
 108:Core/Src/usart.c ****     hdma_usart1_tx.Init.PeriphInc = DMA_PINC_DISABLE;
 109:Core/Src/usart.c ****     hdma_usart1_tx.Init.MemInc = DMA_MINC_ENABLE;
 110:Core/Src/usart.c ****     hdma_usart1_tx.Init.PeriphDataAlignment = DMA_PDATAALIGN_BYTE;
 111:Core/Src/usart.c ****     hdma_usart1_tx.Init.MemDataAlignment = DMA_MDATAALIGN_BYTE;
 112:Core/Src/usart.c ****     hdma_usart1_tx.Init.Mode = DMA_NORMAL;
 113:Core/Src/usart.c ****     hdma_usart1_tx.Init.Priority = DMA_PRIORITY_LOW;
 114:Core/Src/usart.c ****     hdma_usart1_tx.Init.FIFOMode = DMA_FIFOMODE_DISABLE;
 115:Core/Src/usart.c ****     if (HAL_DMA_Init(&hdma_usart1_tx) != HAL_OK)
 116:Core/Src/usart.c ****     {
 117:Core/Src/usart.c ****       Error_Handler();
 118:Core/Src/usart.c ****     }
 119:Core/Src/usart.c **** 
 120:Core/Src/usart.c ****     __HAL_LINKDMA(uartHandle,hdmatx,hdma_usart1_tx);
 121:Core/Src/usart.c **** 
 122:Core/Src/usart.c ****     /* USART1 interrupt Init */
 123:Core/Src/usart.c ****     HAL_NVIC_SetPriority(USART1_IRQn, 0, 0);
 124:Core/Src/usart.c ****     HAL_NVIC_EnableIRQ(USART1_IRQn);
 125:Core/Src/usart.c ****   /* USER CODE BEGIN USART1_MspInit 1 */
 126:Core/Src/usart.c **** 
 127:Core/Src/usart.c ****   /* USER CODE END USART1_MspInit 1 */
 128:Core/Src/usart.c ****   }
 129:Core/Src/usart.c **** }
 133              		.loc 1 129 1 view .LVU30
 134 001e 09B0     		add	sp, sp, #36
 135              	.LCFI3:
 136              		.cfi_remember_state
 137              		.cfi_def_cfa_offset 12
 138              		@ sp needed
 139 0020 30BD     		pop	{r4, r5, pc}
 140              	.LVL4:
 141              	.L12:
 142              	.LCFI4:
 143              		.cfi_restore_state
 144              		.loc 1 129 1 view .LVU31
 145 0022 0446     		mov	r4, r0
  71:Core/Src/usart.c **** 
 146              		.loc 1 71 5 is_stmt 1 view .LVU32
 147              	.LBB2:
  71:Core/Src/usart.c **** 
 148              		.loc 1 71 5 view .LVU33
 149 0024 0025     		movs	r5, #0
 150 0026 0195     		str	r5, [sp, #4]
  71:Core/Src/usart.c **** 
 151              		.loc 1 71 5 view .LVU34
 152 0028 03F59433 		add	r3, r3, #75776
 153 002c 5A6C     		ldr	r2, [r3, #68]
 154 002e 42F01002 		orr	r2, r2, #16
 155 0032 5A64     		str	r2, [r3, #68]
ARM GAS  /tmp/ccfpFN4r.s 			page 6


  71:Core/Src/usart.c **** 
 156              		.loc 1 71 5 view .LVU35
 157 0034 5A6C     		ldr	r2, [r3, #68]
 158 0036 02F01002 		and	r2, r2, #16
 159 003a 0192     		str	r2, [sp, #4]
  71:Core/Src/usart.c **** 
 160              		.loc 1 71 5 view .LVU36
 161 003c 019A     		ldr	r2, [sp, #4]
 162              	.LBE2:
  71:Core/Src/usart.c **** 
 163              		.loc 1 71 5 view .LVU37
  73:Core/Src/usart.c ****     /**USART1 GPIO Configuration
 164              		.loc 1 73 5 view .LVU38
 165              	.LBB3:
  73:Core/Src/usart.c ****     /**USART1 GPIO Configuration
 166              		.loc 1 73 5 view .LVU39
 167 003e 0295     		str	r5, [sp, #8]
  73:Core/Src/usart.c ****     /**USART1 GPIO Configuration
 168              		.loc 1 73 5 view .LVU40
 169 0040 1A6B     		ldr	r2, [r3, #48]
 170 0042 42F00102 		orr	r2, r2, #1
 171 0046 1A63     		str	r2, [r3, #48]
  73:Core/Src/usart.c ****     /**USART1 GPIO Configuration
 172              		.loc 1 73 5 view .LVU41
 173 0048 1B6B     		ldr	r3, [r3, #48]
 174 004a 03F00103 		and	r3, r3, #1
 175 004e 0293     		str	r3, [sp, #8]
  73:Core/Src/usart.c ****     /**USART1 GPIO Configuration
 176              		.loc 1 73 5 view .LVU42
 177 0050 029B     		ldr	r3, [sp, #8]
 178              	.LBE3:
  73:Core/Src/usart.c ****     /**USART1 GPIO Configuration
 179              		.loc 1 73 5 view .LVU43
  78:Core/Src/usart.c ****     GPIO_InitStruct.Mode = GPIO_MODE_AF_PP;
 180              		.loc 1 78 5 view .LVU44
  78:Core/Src/usart.c ****     GPIO_InitStruct.Mode = GPIO_MODE_AF_PP;
 181              		.loc 1 78 25 is_stmt 0 view .LVU45
 182 0052 4FF4C063 		mov	r3, #1536
 183 0056 0393     		str	r3, [sp, #12]
  79:Core/Src/usart.c ****     GPIO_InitStruct.Pull = GPIO_NOPULL;
 184              		.loc 1 79 5 is_stmt 1 view .LVU46
  79:Core/Src/usart.c ****     GPIO_InitStruct.Pull = GPIO_NOPULL;
 185              		.loc 1 79 26 is_stmt 0 view .LVU47
 186 0058 0223     		movs	r3, #2
 187 005a 0493     		str	r3, [sp, #16]
  80:Core/Src/usart.c ****     GPIO_InitStruct.Speed = GPIO_SPEED_FREQ_VERY_HIGH;
 188              		.loc 1 80 5 is_stmt 1 view .LVU48
  80:Core/Src/usart.c ****     GPIO_InitStruct.Speed = GPIO_SPEED_FREQ_VERY_HIGH;
 189              		.loc 1 80 26 is_stmt 0 view .LVU49
 190 005c 0595     		str	r5, [sp, #20]
  81:Core/Src/usart.c ****     GPIO_InitStruct.Alternate = GPIO_AF7_USART1;
 191              		.loc 1 81 5 is_stmt 1 view .LVU50
  81:Core/Src/usart.c ****     GPIO_InitStruct.Alternate = GPIO_AF7_USART1;
 192              		.loc 1 81 27 is_stmt 0 view .LVU51
 193 005e 0323     		movs	r3, #3
 194 0060 0693     		str	r3, [sp, #24]
  82:Core/Src/usart.c ****     HAL_GPIO_Init(GPIOA, &GPIO_InitStruct);
ARM GAS  /tmp/ccfpFN4r.s 			page 7


 195              		.loc 1 82 5 is_stmt 1 view .LVU52
  82:Core/Src/usart.c ****     HAL_GPIO_Init(GPIOA, &GPIO_InitStruct);
 196              		.loc 1 82 31 is_stmt 0 view .LVU53
 197 0062 0723     		movs	r3, #7
 198 0064 0793     		str	r3, [sp, #28]
  83:Core/Src/usart.c **** 
 199              		.loc 1 83 5 is_stmt 1 view .LVU54
 200 0066 03A9     		add	r1, sp, #12
 201 0068 1F48     		ldr	r0, .L15
 202              	.LVL5:
  83:Core/Src/usart.c **** 
 203              		.loc 1 83 5 is_stmt 0 view .LVU55
 204 006a FFF7FEFF 		bl	HAL_GPIO_Init
 205              	.LVL6:
  87:Core/Src/usart.c ****     hdma_usart1_rx.Init.Channel = DMA_CHANNEL_4;
 206              		.loc 1 87 5 is_stmt 1 view .LVU56
  87:Core/Src/usart.c ****     hdma_usart1_rx.Init.Channel = DMA_CHANNEL_4;
 207              		.loc 1 87 29 is_stmt 0 view .LVU57
 208 006e 1F48     		ldr	r0, .L15+4
 209 0070 1F4B     		ldr	r3, .L15+8
 210 0072 0360     		str	r3, [r0]
  88:Core/Src/usart.c ****     hdma_usart1_rx.Init.Direction = DMA_PERIPH_TO_MEMORY;
 211              		.loc 1 88 5 is_stmt 1 view .LVU58
  88:Core/Src/usart.c ****     hdma_usart1_rx.Init.Direction = DMA_PERIPH_TO_MEMORY;
 212              		.loc 1 88 33 is_stmt 0 view .LVU59
 213 0074 4FF00063 		mov	r3, #134217728
 214 0078 4360     		str	r3, [r0, #4]
  89:Core/Src/usart.c ****     hdma_usart1_rx.Init.PeriphInc = DMA_PINC_DISABLE;
 215              		.loc 1 89 5 is_stmt 1 view .LVU60
  89:Core/Src/usart.c ****     hdma_usart1_rx.Init.PeriphInc = DMA_PINC_DISABLE;
 216              		.loc 1 89 35 is_stmt 0 view .LVU61
 217 007a 8560     		str	r5, [r0, #8]
  90:Core/Src/usart.c ****     hdma_usart1_rx.Init.MemInc = DMA_MINC_ENABLE;
 218              		.loc 1 90 5 is_stmt 1 view .LVU62
  90:Core/Src/usart.c ****     hdma_usart1_rx.Init.MemInc = DMA_MINC_ENABLE;
 219              		.loc 1 90 35 is_stmt 0 view .LVU63
 220 007c C560     		str	r5, [r0, #12]
  91:Core/Src/usart.c ****     hdma_usart1_rx.Init.PeriphDataAlignment = DMA_PDATAALIGN_BYTE;
 221              		.loc 1 91 5 is_stmt 1 view .LVU64
  91:Core/Src/usart.c ****     hdma_usart1_rx.Init.PeriphDataAlignment = DMA_PDATAALIGN_BYTE;
 222              		.loc 1 91 32 is_stmt 0 view .LVU65
 223 007e 4FF48063 		mov	r3, #1024
 224 0082 0361     		str	r3, [r0, #16]
  92:Core/Src/usart.c ****     hdma_usart1_rx.Init.MemDataAlignment = DMA_MDATAALIGN_BYTE;
 225              		.loc 1 92 5 is_stmt 1 view .LVU66
  92:Core/Src/usart.c ****     hdma_usart1_rx.Init.MemDataAlignment = DMA_MDATAALIGN_BYTE;
 226              		.loc 1 92 45 is_stmt 0 view .LVU67
 227 0084 4561     		str	r5, [r0, #20]
  93:Core/Src/usart.c ****     hdma_usart1_rx.Init.Mode = DMA_NORMAL;
 228              		.loc 1 93 5 is_stmt 1 view .LVU68
  93:Core/Src/usart.c ****     hdma_usart1_rx.Init.Mode = DMA_NORMAL;
 229              		.loc 1 93 42 is_stmt 0 view .LVU69
 230 0086 8561     		str	r5, [r0, #24]
  94:Core/Src/usart.c ****     hdma_usart1_rx.Init.Priority = DMA_PRIORITY_LOW;
 231              		.loc 1 94 5 is_stmt 1 view .LVU70
  94:Core/Src/usart.c ****     hdma_usart1_rx.Init.Priority = DMA_PRIORITY_LOW;
 232              		.loc 1 94 30 is_stmt 0 view .LVU71
ARM GAS  /tmp/ccfpFN4r.s 			page 8


 233 0088 C561     		str	r5, [r0, #28]
  95:Core/Src/usart.c ****     hdma_usart1_rx.Init.FIFOMode = DMA_FIFOMODE_DISABLE;
 234              		.loc 1 95 5 is_stmt 1 view .LVU72
  95:Core/Src/usart.c ****     hdma_usart1_rx.Init.FIFOMode = DMA_FIFOMODE_DISABLE;
 235              		.loc 1 95 34 is_stmt 0 view .LVU73
 236 008a 0562     		str	r5, [r0, #32]
  96:Core/Src/usart.c ****     if (HAL_DMA_Init(&hdma_usart1_rx) != HAL_OK)
 237              		.loc 1 96 5 is_stmt 1 view .LVU74
  96:Core/Src/usart.c ****     if (HAL_DMA_Init(&hdma_usart1_rx) != HAL_OK)
 238              		.loc 1 96 34 is_stmt 0 view .LVU75
 239 008c 4562     		str	r5, [r0, #36]
  97:Core/Src/usart.c ****     {
 240              		.loc 1 97 5 is_stmt 1 view .LVU76
  97:Core/Src/usart.c ****     {
 241              		.loc 1 97 9 is_stmt 0 view .LVU77
 242 008e FFF7FEFF 		bl	HAL_DMA_Init
 243              	.LVL7:
  97:Core/Src/usart.c ****     {
 244              		.loc 1 97 8 view .LVU78
 245 0092 18BB     		cbnz	r0, .L13
 246              	.L9:
 102:Core/Src/usart.c **** 
 247              		.loc 1 102 5 is_stmt 1 view .LVU79
 102:Core/Src/usart.c **** 
 248              		.loc 1 102 5 view .LVU80
 249 0094 154B     		ldr	r3, .L15+4
 250 0096 A363     		str	r3, [r4, #56]
 102:Core/Src/usart.c **** 
 251              		.loc 1 102 5 view .LVU81
 252 0098 9C63     		str	r4, [r3, #56]
 102:Core/Src/usart.c **** 
 253              		.loc 1 102 5 view .LVU82
 105:Core/Src/usart.c ****     hdma_usart1_tx.Init.Channel = DMA_CHANNEL_4;
 254              		.loc 1 105 5 view .LVU83
 105:Core/Src/usart.c ****     hdma_usart1_tx.Init.Channel = DMA_CHANNEL_4;
 255              		.loc 1 105 29 is_stmt 0 view .LVU84
 256 009a 1648     		ldr	r0, .L15+12
 257 009c 164B     		ldr	r3, .L15+16
 258 009e 0360     		str	r3, [r0]
 106:Core/Src/usart.c ****     hdma_usart1_tx.Init.Direction = DMA_MEMORY_TO_PERIPH;
 259              		.loc 1 106 5 is_stmt 1 view .LVU85
 106:Core/Src/usart.c ****     hdma_usart1_tx.Init.Direction = DMA_MEMORY_TO_PERIPH;
 260              		.loc 1 106 33 is_stmt 0 view .LVU86
 261 00a0 4FF00063 		mov	r3, #134217728
 262 00a4 4360     		str	r3, [r0, #4]
 107:Core/Src/usart.c ****     hdma_usart1_tx.Init.PeriphInc = DMA_PINC_DISABLE;
 263              		.loc 1 107 5 is_stmt 1 view .LVU87
 107:Core/Src/usart.c ****     hdma_usart1_tx.Init.PeriphInc = DMA_PINC_DISABLE;
 264              		.loc 1 107 35 is_stmt 0 view .LVU88
 265 00a6 4023     		movs	r3, #64
 266 00a8 8360     		str	r3, [r0, #8]
 108:Core/Src/usart.c ****     hdma_usart1_tx.Init.MemInc = DMA_MINC_ENABLE;
 267              		.loc 1 108 5 is_stmt 1 view .LVU89
 108:Core/Src/usart.c ****     hdma_usart1_tx.Init.MemInc = DMA_MINC_ENABLE;
 268              		.loc 1 108 35 is_stmt 0 view .LVU90
 269 00aa 0023     		movs	r3, #0
 270 00ac C360     		str	r3, [r0, #12]
ARM GAS  /tmp/ccfpFN4r.s 			page 9


 109:Core/Src/usart.c ****     hdma_usart1_tx.Init.PeriphDataAlignment = DMA_PDATAALIGN_BYTE;
 271              		.loc 1 109 5 is_stmt 1 view .LVU91
 109:Core/Src/usart.c ****     hdma_usart1_tx.Init.PeriphDataAlignment = DMA_PDATAALIGN_BYTE;
 272              		.loc 1 109 32 is_stmt 0 view .LVU92
 273 00ae 4FF48062 		mov	r2, #1024
 274 00b2 0261     		str	r2, [r0, #16]
 110:Core/Src/usart.c ****     hdma_usart1_tx.Init.MemDataAlignment = DMA_MDATAALIGN_BYTE;
 275              		.loc 1 110 5 is_stmt 1 view .LVU93
 110:Core/Src/usart.c ****     hdma_usart1_tx.Init.MemDataAlignment = DMA_MDATAALIGN_BYTE;
 276              		.loc 1 110 45 is_stmt 0 view .LVU94
 277 00b4 4361     		str	r3, [r0, #20]
 111:Core/Src/usart.c ****     hdma_usart1_tx.Init.Mode = DMA_NORMAL;
 278              		.loc 1 111 5 is_stmt 1 view .LVU95
 111:Core/Src/usart.c ****     hdma_usart1_tx.Init.Mode = DMA_NORMAL;
 279              		.loc 1 111 42 is_stmt 0 view .LVU96
 280 00b6 8361     		str	r3, [r0, #24]
 112:Core/Src/usart.c ****     hdma_usart1_tx.Init.Priority = DMA_PRIORITY_LOW;
 281              		.loc 1 112 5 is_stmt 1 view .LVU97
 112:Core/Src/usart.c ****     hdma_usart1_tx.Init.Priority = DMA_PRIORITY_LOW;
 282              		.loc 1 112 30 is_stmt 0 view .LVU98
 283 00b8 C361     		str	r3, [r0, #28]
 113:Core/Src/usart.c ****     hdma_usart1_tx.Init.FIFOMode = DMA_FIFOMODE_DISABLE;
 284              		.loc 1 113 5 is_stmt 1 view .LVU99
 113:Core/Src/usart.c ****     hdma_usart1_tx.Init.FIFOMode = DMA_FIFOMODE_DISABLE;
 285              		.loc 1 113 34 is_stmt 0 view .LVU100
 286 00ba 0362     		str	r3, [r0, #32]
 114:Core/Src/usart.c ****     if (HAL_DMA_Init(&hdma_usart1_tx) != HAL_OK)
 287              		.loc 1 114 5 is_stmt 1 view .LVU101
 114:Core/Src/usart.c ****     if (HAL_DMA_Init(&hdma_usart1_tx) != HAL_OK)
 288              		.loc 1 114 34 is_stmt 0 view .LVU102
 289 00bc 4362     		str	r3, [r0, #36]
 115:Core/Src/usart.c ****     {
 290              		.loc 1 115 5 is_stmt 1 view .LVU103
 115:Core/Src/usart.c ****     {
 291              		.loc 1 115 9 is_stmt 0 view .LVU104
 292 00be FFF7FEFF 		bl	HAL_DMA_Init
 293              	.LVL8:
 115:Core/Src/usart.c ****     {
 294              		.loc 1 115 8 view .LVU105
 295 00c2 70B9     		cbnz	r0, .L14
 296              	.L10:
 120:Core/Src/usart.c **** 
 297              		.loc 1 120 5 is_stmt 1 view .LVU106
 120:Core/Src/usart.c **** 
 298              		.loc 1 120 5 view .LVU107
 299 00c4 0B4B     		ldr	r3, .L15+12
 300 00c6 6363     		str	r3, [r4, #52]
 120:Core/Src/usart.c **** 
 301              		.loc 1 120 5 view .LVU108
 302 00c8 9C63     		str	r4, [r3, #56]
 120:Core/Src/usart.c **** 
 303              		.loc 1 120 5 view .LVU109
 123:Core/Src/usart.c ****     HAL_NVIC_EnableIRQ(USART1_IRQn);
 304              		.loc 1 123 5 view .LVU110
 305 00ca 0022     		movs	r2, #0
 306 00cc 1146     		mov	r1, r2
 307 00ce 2520     		movs	r0, #37
ARM GAS  /tmp/ccfpFN4r.s 			page 10


 308 00d0 FFF7FEFF 		bl	HAL_NVIC_SetPriority
 309              	.LVL9:
 124:Core/Src/usart.c ****   /* USER CODE BEGIN USART1_MspInit 1 */
 310              		.loc 1 124 5 view .LVU111
 311 00d4 2520     		movs	r0, #37
 312 00d6 FFF7FEFF 		bl	HAL_NVIC_EnableIRQ
 313              	.LVL10:
 314              		.loc 1 129 1 is_stmt 0 view .LVU112
 315 00da A0E7     		b	.L7
 316              	.L13:
  99:Core/Src/usart.c ****     }
 317              		.loc 1 99 7 is_stmt 1 view .LVU113
 318 00dc FFF7FEFF 		bl	Error_Handler
 319              	.LVL11:
 320 00e0 D8E7     		b	.L9
 321              	.L14:
 117:Core/Src/usart.c ****     }
 322              		.loc 1 117 7 view .LVU114
 323 00e2 FFF7FEFF 		bl	Error_Handler
 324              	.LVL12:
 325 00e6 EDE7     		b	.L10
 326              	.L16:
 327              		.align	2
 328              	.L15:
 329 00e8 00000240 		.word	1073872896
 330 00ec 00000000 		.word	hdma_usart1_rx
 331 00f0 40640240 		.word	1073898560
 332 00f4 00000000 		.word	hdma_usart1_tx
 333 00f8 B8640240 		.word	1073898680
 334              		.cfi_endproc
 335              	.LFE131:
 337              		.section	.text.HAL_UART_MspDeInit,"ax",%progbits
 338              		.align	1
 339              		.global	HAL_UART_MspDeInit
 340              		.syntax unified
 341              		.thumb
 342              		.thumb_func
 343              		.fpu fpv4-sp-d16
 345              	HAL_UART_MspDeInit:
 346              	.LVL13:
 347              	.LFB132:
 130:Core/Src/usart.c **** 
 131:Core/Src/usart.c **** void HAL_UART_MspDeInit(UART_HandleTypeDef* uartHandle)
 132:Core/Src/usart.c **** {
 348              		.loc 1 132 1 view -0
 349              		.cfi_startproc
 350              		@ args = 0, pretend = 0, frame = 0
 351              		@ frame_needed = 0, uses_anonymous_args = 0
 133:Core/Src/usart.c **** 
 134:Core/Src/usart.c ****   if(uartHandle->Instance==USART1)
 352              		.loc 1 134 3 view .LVU116
 353              		.loc 1 134 16 is_stmt 0 view .LVU117
 354 0000 0268     		ldr	r2, [r0]
 355              		.loc 1 134 5 view .LVU118
 356 0002 0D4B     		ldr	r3, .L24
 357 0004 9A42     		cmp	r2, r3
 358 0006 00D0     		beq	.L23
ARM GAS  /tmp/ccfpFN4r.s 			page 11


 359 0008 7047     		bx	lr
 360              	.L23:
 132:Core/Src/usart.c **** 
 361              		.loc 1 132 1 view .LVU119
 362 000a 10B5     		push	{r4, lr}
 363              	.LCFI5:
 364              		.cfi_def_cfa_offset 8
 365              		.cfi_offset 4, -8
 366              		.cfi_offset 14, -4
 367 000c 0446     		mov	r4, r0
 135:Core/Src/usart.c ****   {
 136:Core/Src/usart.c ****   /* USER CODE BEGIN USART1_MspDeInit 0 */
 137:Core/Src/usart.c **** 
 138:Core/Src/usart.c ****   /* USER CODE END USART1_MspDeInit 0 */
 139:Core/Src/usart.c ****     /* Peripheral clock disable */
 140:Core/Src/usart.c ****     __HAL_RCC_USART1_CLK_DISABLE();
 368              		.loc 1 140 5 is_stmt 1 view .LVU120
 369 000e 0B4A     		ldr	r2, .L24+4
 370 0010 536C     		ldr	r3, [r2, #68]
 371 0012 23F01003 		bic	r3, r3, #16
 372 0016 5364     		str	r3, [r2, #68]
 141:Core/Src/usart.c **** 
 142:Core/Src/usart.c ****     /**USART1 GPIO Configuration
 143:Core/Src/usart.c ****     PA9     ------> USART1_TX
 144:Core/Src/usart.c ****     PA10     ------> USART1_RX
 145:Core/Src/usart.c ****     */
 146:Core/Src/usart.c ****     HAL_GPIO_DeInit(GPIOA, GPIO_PIN_9|GPIO_PIN_10);
 373              		.loc 1 146 5 view .LVU121
 374 0018 4FF4C061 		mov	r1, #1536
 375 001c 0848     		ldr	r0, .L24+8
 376              	.LVL14:
 377              		.loc 1 146 5 is_stmt 0 view .LVU122
 378 001e FFF7FEFF 		bl	HAL_GPIO_DeInit
 379              	.LVL15:
 147:Core/Src/usart.c **** 
 148:Core/Src/usart.c ****     /* USART1 DMA DeInit */
 149:Core/Src/usart.c ****     HAL_DMA_DeInit(uartHandle->hdmarx);
 380              		.loc 1 149 5 is_stmt 1 view .LVU123
 381 0022 A06B     		ldr	r0, [r4, #56]
 382 0024 FFF7FEFF 		bl	HAL_DMA_DeInit
 383              	.LVL16:
 150:Core/Src/usart.c ****     HAL_DMA_DeInit(uartHandle->hdmatx);
 384              		.loc 1 150 5 view .LVU124
 385 0028 606B     		ldr	r0, [r4, #52]
 386 002a FFF7FEFF 		bl	HAL_DMA_DeInit
 387              	.LVL17:
 151:Core/Src/usart.c **** 
 152:Core/Src/usart.c ****     /* USART1 interrupt Deinit */
 153:Core/Src/usart.c ****     HAL_NVIC_DisableIRQ(USART1_IRQn);
 388              		.loc 1 153 5 view .LVU125
 389 002e 2520     		movs	r0, #37
 390 0030 FFF7FEFF 		bl	HAL_NVIC_DisableIRQ
 391              	.LVL18:
 154:Core/Src/usart.c ****   /* USER CODE BEGIN USART1_MspDeInit 1 */
 155:Core/Src/usart.c **** 
 156:Core/Src/usart.c ****   /* USER CODE END USART1_MspDeInit 1 */
 157:Core/Src/usart.c ****   }
ARM GAS  /tmp/ccfpFN4r.s 			page 12


 158:Core/Src/usart.c **** }
 392              		.loc 1 158 1 is_stmt 0 view .LVU126
 393 0034 10BD     		pop	{r4, pc}
 394              	.LVL19:
 395              	.L25:
 396              		.loc 1 158 1 view .LVU127
 397 0036 00BF     		.align	2
 398              	.L24:
 399 0038 00100140 		.word	1073811456
 400 003c 00380240 		.word	1073887232
 401 0040 00000240 		.word	1073872896
 402              		.cfi_endproc
 403              	.LFE132:
 405              		.comm	hdma_usart1_tx,96,4
 406              		.comm	hdma_usart1_rx,96,4
 407              		.comm	huart1,68,4
 408              		.text
 409              	.Letext0:
 410              		.file 2 "/usr/lib/gcc/arm-none-eabi/9.2.1/include/stdint.h"
 411              		.file 3 "Drivers/CMSIS/Include/core_cm4.h"
 412              		.file 4 "Drivers/CMSIS/Device/ST/STM32F4xx/Include/system_stm32f4xx.h"
 413              		.file 5 "Drivers/CMSIS/Device/ST/STM32F4xx/Include/stm32f407xx.h"
 414              		.file 6 "Drivers/STM32F4xx_HAL_Driver/Inc/stm32f4xx_hal_def.h"
 415              		.file 7 "Drivers/STM32F4xx_HAL_Driver/Inc/stm32f4xx_hal_gpio.h"
 416              		.file 8 "Drivers/STM32F4xx_HAL_Driver/Inc/stm32f4xx_hal_dma.h"
 417              		.file 9 "Drivers/STM32F4xx_HAL_Driver/Inc/stm32f4xx_hal_uart.h"
 418              		.file 10 "Drivers/STM32F4xx_HAL_Driver/Inc/stm32f4xx_hal.h"
 419              		.file 11 "Core/Inc/usart.h"
 420              		.file 12 "Drivers/STM32F4xx_HAL_Driver/Inc/stm32f4xx_hal_cortex.h"
 421              		.file 13 "Core/Inc/main.h"
ARM GAS  /tmp/ccfpFN4r.s 			page 13

